; Function Attrs: nounwind uwtable
define dso_local void @luaL_addvalue(ptr noundef %0) local_unnamed_addr #0 {
  %2 = alloca i64, align 8
  %3 = getelementptr inbounds nuw i8, ptr %0, i64 16
  %4 = load ptr, ptr %3, align 8, !tbaa !49
  call void @llvm.lifetime.start.p0(i64 8, ptr nonnull %2) #13
  %5 = call ptr @lua_tolstring(ptr noundef %4, i32 noundef -1, ptr noundef nonnull %2) #13
  %6 = load i64, ptr %2, align 8, !tbaa !55
  %7 = load ptr, ptr %0, align 8, !tbaa !51
  %8 = getelementptr inbounds nuw i8, ptr %0, i64 24
  %9 = ptrtoint ptr %7 to i64
  %10 = ptrtoint ptr %8 to i64
  %.neg = add i64 %10, 8192
  %11 = sub i64 %.neg, %9
  %.not = icmp ugt i64 %6, %11
  br i1 %.not, label %16, label %12

12:                                               ; preds = %1
  call void @llvm.memcpy.p0.p0.i64(ptr align 1 %7, ptr align 1 %5, i64 %6, i1 false)
  %13 = load i64, ptr %2, align 8, !tbaa !55
  %14 = load ptr, ptr %0, align 8, !tbaa !51
  %15 = getelementptr inbounds nuw i8, ptr %14, i64 %13
  store ptr %15, ptr %0, align 8, !tbaa !51
  call void @lua_settop(ptr noundef %4, i32 noundef -2) #13
  br label %adjuststack.exit

16:                                               ; preds = %1
  %17 = icmp eq ptr %7, %8
  br i1 %17, label %emptybuffer.exit.thread, label %18

18:                                               ; preds = %16
  %19 = sub i64 %9, %10
  %20 = load ptr, ptr %3, align 8, !tbaa !49
  call void @lua_pushlstring(ptr noundef %20, ptr noundef nonnull %8, i64 noundef %19) #13
  store ptr %8, ptr %0, align 8, !tbaa !51
  %21 = getelementptr inbounds nuw i8, ptr %0, i64 8
  %22 = load i32, ptr %21, align 8, !tbaa !52
  %23 = add nsw i32 %22, 1
  store i32 %23, ptr %21, align 8, !tbaa !52
  call void @lua_insert(ptr noundef %4, i32 noundef -2) #13
  br label %emptybuffer.exit.thread

emptybuffer.exit.thread:                          ; preds = %16, %18
  %24 = getelementptr inbounds nuw i8, ptr %0, i64 8
  %25 = load i32, ptr %24, align 8, !tbaa !52
  %26 = add nsw i32 %25, 1
  store i32 %26, ptr %24, align 8, !tbaa !52
  %27 = icmp sgt i32 %25, 0
  br i1 %27, label %28, label %adjuststack.exit

28:                                               ; preds = %emptybuffer.exit.thread
  %29 = load ptr, ptr %3, align 8, !tbaa !49
  %30 = call i64 @lua_objlen(ptr noundef %29, i32 noundef -1) #13
  br label %31

31:                                               ; preds = %31, %28
  %.020.i = phi i64 [ %30, %28 ], [ %39, %31 ]
  %.019.i = phi i32 [ 1, %28 ], [ %32, %31 ]
  %32 = add nuw nsw i32 %.019.i, 1
  %33 = xor i32 %.019.i, -1
  %34 = call i64 @lua_objlen(ptr noundef %29, i32 noundef %33) #13
  %35 = load i32, ptr %24, align 8, !tbaa !52
  %36 = sub nsw i32 %35, %.019.i
  %37 = icmp sgt i32 %36, 8
  %38 = icmp ugt i64 %.020.i, %34
  %or.cond.i = select i1 %37, i1 true, i1 %38
  %39 = add i64 %34, %.020.i
  %40 = icmp slt i32 %32, %35
  %or.cond22.i = select i1 %or.cond.i, i1 %40, i1 false
  br i1 %or.cond22.i, label %31, label %41, !llvm.loop !54

41:                                               ; preds = %31
  %.1.i = select i1 %or.cond.i, i32 %32, i32 %.019.i
  call void @lua_concat(ptr noundef %29, i32 noundef %.1.i) #13
  %42 = load i32, ptr %24, align 8, !tbaa !52
  %reass.sub = sub i32 %42, %.1.i
  %43 = add i32 %reass.sub, 1
  store i32 %43, ptr %24, align 8, !tbaa !52
  br label %adjuststack.exit

adjuststack.exit:                                 ; preds = %41, %emptybuffer.exit.thread, %12
  call void @llvm.lifetime.end.p0(i64 8, ptr nonnull %2) #13
  ret void
}